; ModuleID = '33/2751.c'
source_filename = "33/2751.c"
target datalayout = "e-m:e-p270:32:32-p271:32:32-p272:64:64-i64:64-f80:128-n8:16:32:64-S128"
target triple = "x86_64-pc-linux-gnu"

@.str = private unnamed_addr constant [3 x i8] c"%d\00", align 1
@.str.1 = private unnamed_addr constant [3 x i8] c"%s\00", align 1
@.str.2 = private unnamed_addr constant [4 x i8] c"%s\0A\00", align 1

; Function Attrs: noinline nounwind uwtable
define dso_local i32 @main() #0 {
  %1 = alloca i32, align 4
  %2 = alloca i32, align 4
  %3 = alloca i32, align 4
  %4 = alloca [1000 x i32], align 16
  %5 = alloca i32, align 4
  %6 = alloca [1000 x [256 x i8]], align 16
  store i32 0, i32* %1, align 4
  %7 = call i32 (i8*, ...) @__isoc99_scanf(i8* getelementptr inbounds ([3 x i8], [3 x i8]* @.str, i64 0, i64 0), i32* %2)
  store i32 0, i32* %3, align 4
  br label %8

8:                                                ; preds = %99, %0
  %9 = load i32, i32* %3, align 4
  %10 = load i32, i32* %2, align 4
  %11 = icmp slt i32 %9, %10
  br i1 %11, label %12, label %102

12:                                               ; preds = %8
  %13 = load i32, i32* %3, align 4
  %14 = sext i32 %13 to i64
  %15 = getelementptr inbounds [1000 x [256 x i8]], [1000 x [256 x i8]]* %6, i64 0, i64 %14
  %16 = getelementptr inbounds [256 x i8], [256 x i8]* %15, i64 0, i64 0
  %17 = call i32 (i8*, ...) @__isoc99_scanf(i8* getelementptr inbounds ([3 x i8], [3 x i8]* @.str.1, i64 0, i64 0), i8* %16)
  %18 = load i32, i32* %3, align 4
  %19 = sext i32 %18 to i64
  %20 = getelementptr inbounds [1000 x [256 x i8]], [1000 x [256 x i8]]* %6, i64 0, i64 %19
  %21 = getelementptr inbounds [256 x i8], [256 x i8]* %20, i64 0, i64 0
  %22 = call i64 @strlen(i8* %21) #3
  %23 = trunc i64 %22 to i32
  %24 = load i32, i32* %3, align 4
  %25 = sext i32 %24 to i64
  %26 = getelementptr inbounds [1000 x i32], [1000 x i32]* %4, i64 0, i64 %25
  store i32 %23, i32* %26, align 4
  store i32 0, i32* %5, align 4
  br label %27

27:                                               ; preds = %95, %12
  %28 = load i32, i32* %5, align 4
  %29 = load i32, i32* %3, align 4
  %30 = sext i32 %29 to i64
  %31 = getelementptr inbounds [1000 x i32], [1000 x i32]* %4, i64 0, i64 %30
  %32 = load i32, i32* %31, align 4
  %33 = icmp slt i32 %28, %32
  br i1 %33, label %34, label %98

34:                                               ; preds = %27
  %35 = load i32, i32* %3, align 4
  %36 = sext i32 %35 to i64
  %37 = getelementptr inbounds [1000 x [256 x i8]], [1000 x [256 x i8]]* %6, i64 0, i64 %36
  %38 = load i32, i32* %5, align 4
  %39 = sext i32 %38 to i64
  %40 = getelementptr inbounds [256 x i8], [256 x i8]* %37, i64 0, i64 %39
  %41 = load i8, i8* %40, align 1
  %42 = sext i8 %41 to i32
  %43 = icmp eq i32 %42, 65
  br i1 %43, label %44, label %51

44:                                               ; preds = %34
  %45 = load i32, i32* %3, align 4
  %46 = sext i32 %45 to i64
  %47 = getelementptr inbounds [1000 x [256 x i8]], [1000 x [256 x i8]]* %6, i64 0, i64 %46
  %48 = load i32, i32* %5, align 4
  %49 = sext i32 %48 to i64
  %50 = getelementptr inbounds [256 x i8], [256 x i8]* %47, i64 0, i64 %49
  store i8 84, i8* %50, align 1
  br label %94

51:                                               ; preds = %34
  %52 = load i32, i32* %3, align 4
  %53 = sext i32 %52 to i64
  %54 = getelementptr inbounds [1000 x [256 x i8]], [1000 x [256 x i8]]* %6, i64 0, i64 %53
  %55 = load i32, i32* %5, align 4
  %56 = sext i32 %55 to i64
  %57 = getelementptr inbounds [256 x i8], [256 x i8]* %54, i64 0, i64 %56
  %58 = load i8, i8* %57, align 1
  %59 = sext i8 %58 to i32
  %60 = icmp eq i32 %59, 84
  br i1 %60, label %61, label %68

61:                                               ; preds = %51
  %62 = load i32, i32* %3, align 4
  %63 = sext i32 %62 to i64
  %64 = getelementptr inbounds [1000 x [256 x i8]], [1000 x [256 x i8]]* %6, i64 0, i64 %63
  %65 = load i32, i32* %5, align 4
  %66 = sext i32 %65 to i64
  %67 = getelementptr inbounds [256 x i8], [256 x i8]* %64, i64 0, i64 %66
  store i8 65, i8* %67, align 1
  br label %93

68:                                               ; preds = %51
  %69 = load i32, i32* %3, align 4
  %70 = sext i32 %69 to i64
  %71 = getelementptr inbounds [1000 x [256 x i8]], [1000 x [256 x i8]]* %6, i64 0, i64 %70
  %72 = load i32, i32* %5, align 4
  %73 = sext i32 %72 to i64
  %74 = getelementptr inbounds [256 x i8], [256 x i8]* %71, i64 0, i64 %73
  %75 = load i8, i8* %74, align 1
  %76 = sext i8 %75 to i32
  %77 = icmp eq i32 %76, 67
  br i1 %77, label %78, label %85

78:                                               ; preds = %68
  %79 = load i32, i32* %3, align 4
  %80 = sext i32 %79 to i64
  %81 = getelementptr inbounds [1000 x [256 x i8]], [1000 x [256 x i8]]* %6, i64 0, i64 %80
  %82 = load i32, i32* %5, align 4
  %83 = sext i32 %82 to i64
  %84 = getelementptr inbounds [256 x i8], [256 x i8]* %81, i64 0, i64 %83
  store i8 71, i8* %84, align 1
  br label %92

85:                                               ; preds = %68
  %86 = load i32, i32* %3, align 4
  %87 = sext i32 %86 to i64
  %88 = getelementptr inbounds [1000 x [256 x i8]], [1000 x [256 x i8]]* %6, i64 0, i64 %87
  %89 = load i32, i32* %5, align 4
  %90 = sext i32 %89 to i64
  %91 = getelementptr inbounds [256 x i8], [256 x i8]* %88, i64 0, i64 %90
  store i8 67, i8* %91, align 1
  br label %92

92:                                               ; preds = %85, %78
  br label %93

93:                                               ; preds = %92, %61
  br label %94

94:                                               ; preds = %93, %44
  br label %95

95:                                               ; preds = %94
  %96 = load i32, i32* %5, align 4
  %97 = add nsw i32 %96, 1
  store i32 %97, i32* %5, align 4
  br label %27

98:                                               ; preds = %27
  br label %99

99:                                               ; preds = %98
  %100 = load i32, i32* %3, align 4
  %101 = add nsw i32 %100, 1
  store i32 %101, i32* %3, align 4
  br label %8

102:                                              ; preds = %8
  store i32 0, i32* %3, align 4
  br label %103

103:                                              ; preds = %113, %102
  %104 = load i32, i32* %3, align 4
  %105 = load i32, i32* %2, align 4
  %106 = icmp slt i32 %104, %105
  br i1 %106, label %107, label %116

107:                                              ; preds = %103
  %108 = load i32, i32* %3, align 4
  %109 = sext i32 %108 to i64
  %110 = getelementptr inbounds [1000 x [256 x i8]], [1000 x [256 x i8]]* %6, i64 0, i64 %109
  %111 = getelementptr inbounds [256 x i8], [256 x i8]* %110, i64 0, i64 0
  %112 = call i32 (i8*, ...) @printf(i8* getelementptr inbounds ([4 x i8], [4 x i8]* @.str.2, i64 0, i64 0), i8* %111)
  br label %113

113:                                              ; preds = %107
  %114 = load i32, i32* %3, align 4
  %115 = add nsw i32 %114, 1
  store i32 %115, i32* %3, align 4
  br label %103

116:                                              ; preds = %103
  ret i32 0
}

declare dso_local i32 @__isoc99_scanf(i8*, ...) #1

; Function Attrs: nounwind readonly
declare dso_local i64 @strlen(i8*) #2

declare dso_local i32 @printf(i8*, ...) #1


!llvm.module.flags = !{!0}
!llvm.ident = !{!1}

!0 = !{i32 1, !"wchar_size", i32 4}
!1 = !{!"clang version 10.0.0-4ubuntu1 "}
