; ModuleID = 'source-C-CXX/32/2751.c'
source_filename = "source-C-CXX/32/2751.c"
target datalayout = "e-m:e-p270:32:32-p271:32:32-p272:64:64-i64:64-f80:128-n8:16:32:64-S128"
target triple = "x86_64-pc-linux-gnu"

@.str = private unnamed_addr constant [3 x i8] c"%d\00", align 1
@.str.1 = private unnamed_addr constant [3 x i8] c"%s\00", align 1

; Function Attrs: nofree nounwind sspstrong uwtable
define dso_local i32 @main() local_unnamed_addr #0 {
  %1 = alloca i32, align 4
  %2 = alloca [1000 x [256 x i8]], align 16
  %3 = bitcast i32* %1 to i8*
  call void @llvm.lifetime.start.p0i8(i64 4, i8* nonnull %3) #5
  %4 = getelementptr inbounds [1000 x [256 x i8]], [1000 x [256 x i8]]* %2, i64 0, i64 0, i64 0
  call void @llvm.lifetime.start.p0i8(i64 256000, i8* nonnull %4) #5
  %5 = call i32 (i8*, ...) @__isoc99_scanf(i8* getelementptr inbounds ([3 x i8], [3 x i8]* @.str, i64 0, i64 0), i32* nonnull %1)
  %6 = load i32, i32* %1, align 4, !tbaa !5
  %7 = icmp sgt i32 %6, 0
  br i1 %7, label %10, label %61

8:                                                ; preds = %48
  %9 = icmp sgt i32 %50, 0
  br i1 %9, label %53, label %61

10:                                               ; preds = %0, %48
  %11 = phi i64 [ %49, %48 ], [ 0, %0 ]
  %12 = getelementptr inbounds [1000 x [256 x i8]], [1000 x [256 x i8]]* %2, i64 0, i64 %11, i64 0
  %13 = call i32 (i8*, ...) @__isoc99_scanf(i8* getelementptr inbounds ([3 x i8], [3 x i8]* @.str.1, i64 0, i64 0), i8* nonnull %12)
  %14 = call i64 @strlen(i8* noundef nonnull %12) #6
  %15 = trunc i64 %14 to i32
  %16 = icmp sgt i32 %15, 0
  br i1 %16, label %17, label %48

17:                                               ; preds = %10
  %18 = shl i64 %14, 32
  %19 = and i64 %14, 1
  %20 = icmp eq i64 %18, 4294967296
  br i1 %20, label %37, label %21

21:                                               ; preds = %17
  %22 = ashr exact i64 %18, 32
  %23 = sub nsw i64 %22, %19
  br label %24

24:                                               ; preds = %65, %21
  %25 = phi i64 [ 0, %21 ], [ %67, %65 ]
  %26 = phi i64 [ %23, %21 ], [ %68, %65 ]
  %27 = getelementptr inbounds [1000 x [256 x i8]], [1000 x [256 x i8]]* %2, i64 0, i64 %11, i64 %25
  %28 = load i8, i8* %27, align 2, !tbaa !9
  switch i8 %28, label %31 [
    i8 65, label %32
    i8 84, label %29
    i8 67, label %30
  ]

29:                                               ; preds = %24
  br label %32

30:                                               ; preds = %24
  br label %32

31:                                               ; preds = %24
  br label %32

32:                                               ; preds = %24, %30, %31, %29
  %33 = phi i8 [ 71, %30 ], [ 67, %31 ], [ 65, %29 ], [ 84, %24 ]
  store i8 %33, i8* %27, align 2, !tbaa !9
  %34 = or i64 %25, 1
  %35 = getelementptr inbounds [1000 x [256 x i8]], [1000 x [256 x i8]]* %2, i64 0, i64 %11, i64 %34
  %36 = load i8, i8* %35, align 1, !tbaa !9
  switch i8 %36, label %64 [
    i8 65, label %65
    i8 84, label %63
    i8 67, label %62
  ]

37:                                               ; preds = %65, %17
  %38 = phi i64 [ 0, %17 ], [ %67, %65 ]
  %39 = icmp eq i64 %19, 0
  br i1 %39, label %48, label %40

40:                                               ; preds = %37
  %41 = getelementptr inbounds [1000 x [256 x i8]], [1000 x [256 x i8]]* %2, i64 0, i64 %11, i64 %38
  %42 = load i8, i8* %41, align 1, !tbaa !9
  switch i8 %42, label %45 [
    i8 65, label %46
    i8 84, label %44
    i8 67, label %43
  ]

43:                                               ; preds = %40
  br label %46

44:                                               ; preds = %40
  br label %46

45:                                               ; preds = %40
  br label %46

46:                                               ; preds = %45, %44, %43, %40
  %47 = phi i8 [ 71, %43 ], [ 67, %45 ], [ 65, %44 ], [ 84, %40 ]
  store i8 %47, i8* %41, align 1, !tbaa !9
  br label %48

48:                                               ; preds = %46, %37, %10
  %49 = add nuw nsw i64 %11, 1
  %50 = load i32, i32* %1, align 4, !tbaa !5
  %51 = sext i32 %50 to i64
  %52 = icmp slt i64 %49, %51
  br i1 %52, label %10, label %8, !llvm.loop !10

53:                                               ; preds = %8, %53
  %54 = phi i64 [ %57, %53 ], [ 0, %8 ]
  %55 = getelementptr inbounds [1000 x [256 x i8]], [1000 x [256 x i8]]* %2, i64 0, i64 %54, i64 0
  %56 = call i32 @puts(i8* nonnull %55)
  %57 = add nuw nsw i64 %54, 1
  %58 = load i32, i32* %1, align 4, !tbaa !5
  %59 = sext i32 %58 to i64
  %60 = icmp slt i64 %57, %59
  br i1 %60, label %53, label %61, !llvm.loop !12

61:                                               ; preds = %53, %0, %8
  call void @llvm.lifetime.end.p0i8(i64 256000, i8* nonnull %4) #5
  call void @llvm.lifetime.end.p0i8(i64 4, i8* nonnull %3) #5
  ret i32 0

62:                                               ; preds = %32
  br label %65

63:                                               ; preds = %32
  br label %65

64:                                               ; preds = %32
  br label %65

65:                                               ; preds = %64, %63, %62, %32
  %66 = phi i8 [ 71, %62 ], [ 67, %64 ], [ 65, %63 ], [ 84, %32 ]
  store i8 %66, i8* %35, align 1, !tbaa !9
  %67 = add nuw nsw i64 %25, 2
  %68 = add i64 %26, -2
  %69 = icmp eq i64 %68, 0
  br i1 %69, label %37, label %24, !llvm.loop !13
}

; Function Attrs: argmemonly mustprogress nofree nosync nounwind willreturn
declare void @llvm.lifetime.start.p0i8(i64 immarg, i8* nocapture) #1

; Function Attrs: nofree nounwind
declare noundef i32 @__isoc99_scanf(i8* nocapture noundef readonly, ...) local_unnamed_addr #2

; Function Attrs: argmemonly mustprogress nofree nounwind readonly willreturn
declare i64 @strlen(i8* nocapture) local_unnamed_addr #3

; Function Attrs: argmemonly mustprogress nofree nosync nounwind willreturn
declare void @llvm.lifetime.end.p0i8(i64 immarg, i8* nocapture) #1

; Function Attrs: nofree nounwind
declare noundef i32 @puts(i8* nocapture noundef readonly) local_unnamed_addr #4


!llvm.module.flags = !{!0, !1, !2, !3}
!llvm.ident = !{!4}

!0 = !{i32 1, !"wchar_size", i32 4}
!1 = !{i32 7, !"PIC Level", i32 2}
!2 = !{i32 7, !"PIE Level", i32 2}
!3 = !{i32 7, !"uwtable", i32 1}
!4 = !{!"clang version 13.0.0"}
!5 = !{!6, !6, i64 0}
!6 = !{!"int", !7, i64 0}
!7 = !{!"omnipotent char", !8, i64 0}
!8 = !{!"Simple C/C++ TBAA"}
!9 = !{!7, !7, i64 0}
!10 = distinct !{!10, !11}
!11 = !{!"llvm.loop.mustprogress"}
!12 = distinct !{!12, !11}
!13 = distinct !{!13, !11}
